; ModuleID = '43/308.c'
source_filename = "43/308.c"
target datalayout = "e-m:e-p270:32:32-p271:32:32-p272:64:64-i64:64-f80:128-n8:16:32:64-S128"
target triple = "x86_64-pc-linux-gnu"

@.str = private unnamed_addr constant [3 x i8] c"%d\00", align 1
@.str.1 = private unnamed_addr constant [7 x i8] c"%d %d\0A\00", align 1

; Function Attrs: noinline nounwind uwtable
define dso_local i32 @main() #0 {
  %1 = alloca i32, align 4
  %2 = alloca i32, align 4
  %3 = alloca i32, align 4
  store i32 0, i32* %1, align 4
  %4 = call i32 (i8*, ...) @__isoc99_scanf(i8* getelementptr inbounds ([3 x i8], [3 x i8]* @.str, i64 0, i64 0), i32* %2)
  %5 = load i32, i32* %2, align 4
  %6 = sub nsw i32 %5, 2
  store i32 %6, i32* %3, align 4
  br label %7

7:                                                ; preds = %29, %0
  %8 = load i32, i32* %3, align 4
  %9 = load i32, i32* %2, align 4
  %10 = sdiv i32 %9, 2
  %11 = icmp sge i32 %8, %10
  br i1 %11, label %12, label %32

12:                                               ; preds = %7
  %13 = load i32, i32* %3, align 4
  %14 = call i32 @jss(i32 %13)
  %15 = icmp ne i32 %14, 0
  br i1 %15, label %16, label %28

16:                                               ; preds = %12
  %17 = load i32, i32* %2, align 4
  %18 = load i32, i32* %3, align 4
  %19 = sub nsw i32 %17, %18
  %20 = call i32 @jss(i32 %19)
  %21 = icmp ne i32 %20, 0
  br i1 %21, label %22, label %28

22:                                               ; preds = %16
  %23 = load i32, i32* %2, align 4
  %24 = load i32, i32* %3, align 4
  %25 = sub nsw i32 %23, %24
  %26 = load i32, i32* %3, align 4
  %27 = call i32 (i8*, ...) @printf(i8* getelementptr inbounds ([7 x i8], [7 x i8]* @.str.1, i64 0, i64 0), i32 %25, i32 %26)
  br label %28

28:                                               ; preds = %22, %16, %12
  br label %29

29:                                               ; preds = %28
  %30 = load i32, i32* %3, align 4
  %31 = add nsw i32 %30, -1
  store i32 %31, i32* %3, align 4
  br label %7

32:                                               ; preds = %7
  ret i32 0
}

declare dso_local i32 @__isoc99_scanf(i8*, ...) #1

; Function Attrs: noinline nounwind uwtable
define dso_local i32 @jss(i32 %0) #0 {
  %2 = alloca i32, align 4
  %3 = alloca i32, align 4
  %4 = alloca i32, align 4
  %5 = alloca i32, align 4
  store i32 %0, i32* %3, align 4
  store i32 0, i32* %5, align 4
  %6 = load i32, i32* %3, align 4
  %7 = sub nsw i32 %6, 1
  store i32 %7, i32* %4, align 4
  br label %8

8:                                                ; preds = %18, %1
  %9 = load i32, i32* %4, align 4
  %10 = icmp sge i32 %9, 3
  br i1 %10, label %11, label %21

11:                                               ; preds = %8
  %12 = load i32, i32* %3, align 4
  %13 = load i32, i32* %4, align 4
  %14 = srem i32 %12, %13
  %15 = icmp eq i32 %14, 0
  br i1 %15, label %16, label %17

16:                                               ; preds = %11
  store i32 1, i32* %5, align 4
  br label %21

17:                                               ; preds = %11
  br label %18

18:                                               ; preds = %17
  %19 = load i32, i32* %4, align 4
  %20 = add nsw i32 %19, -1
  store i32 %20, i32* %4, align 4
  br label %8

21:                                               ; preds = %16, %8
  %22 = load i32, i32* %3, align 4
  %23 = srem i32 %22, 2
  %24 = icmp eq i32 %23, 1
  br i1 %24, label %25, label %32

25:                                               ; preds = %21
  %26 = load i32, i32* %5, align 4
  %27 = icmp eq i32 %26, 0
  br i1 %27, label %28, label %32

28:                                               ; preds = %25
  %29 = load i32, i32* %3, align 4
  %30 = icmp ne i32 %29, 1
  br i1 %30, label %31, label %32

31:                                               ; preds = %28
  store i32 1, i32* %2, align 4
  br label %33

32:                                               ; preds = %28, %25, %21
  store i32 0, i32* %2, align 4
  br label %33

33:                                               ; preds = %32, %31
  %34 = load i32, i32* %2, align 4
  ret i32 %34
}

declare dso_local i32 @printf(i8*, ...) #1


!llvm.module.flags = !{!0}
!llvm.ident = !{!1}

!0 = !{i32 1, !"wchar_size", i32 4}
!1 = !{!"clang version 10.0.0-4ubuntu1 "}
